target datalayout = "e-m:e-p270:32:32-p271:32:32-p272:64:64-i64:64-i128:128-f80:128-n8:16:32:64-S128"
target triple = "x86_64-pc-linux-gnu"

%struct.anon.2 = type { ptr, i32, i32 }
%struct.PgBenchExprList = type { ptr, ptr }
%struct.PgBenchExprLink = type { ptr, ptr }
%struct.PgBenchExpr = type { i32, %union.anon }
%union.anon = type { %struct.PgBenchValue }
%struct.PgBenchValue = type { i32, %union.anon.0 }
%union.anon.0 = type { i64 }
%struct.anon = type { ptr }
%struct.anon.1 = type { i32, ptr }

@.str.47 = private unnamed_addr constant [31 x i8] c"at least one argument expected\00", align 1
@.str.48 = private unnamed_addr constant [42 x i8] c"odd and >= 3 number of arguments expected\00", align 1
@.str.49 = private unnamed_addr constant [23 x i8] c"case control structure\00", align 1
@.str.50 = private unnamed_addr constant [31 x i8] c"unexpected number of arguments\00", align 1
@.str.51 = private unnamed_addr constant [13 x i8] c"default_seed\00", align 1

; Function Attrs: nounwind uwtable
define internal ptr @make_elist(ptr noundef %0, ptr noundef %1) #0 {
  %3 = alloca ptr, align 8
  %4 = alloca ptr, align 8
  %5 = alloca ptr, align 8
  store ptr %0, ptr %3, align 8
  store ptr %1, ptr %4, align 8
  call void @llvm.lifetime.start.p0(i64 8, ptr %5) #7
  %6 = load ptr, ptr %4, align 8
  %7 = icmp eq ptr %6, null
  br i1 %7, label %8, label %14

8:                                                ; preds = %2
  %9 = call ptr @pg_malloc(i64 noundef 16)
  store ptr %9, ptr %4, align 8
  %10 = load ptr, ptr %4, align 8
  %11 = getelementptr inbounds nuw %struct.PgBenchExprList, ptr %10, i32 0, i32 0
  store ptr null, ptr %11, align 8
  %12 = load ptr, ptr %4, align 8
  %13 = getelementptr inbounds nuw %struct.PgBenchExprList, ptr %12, i32 0, i32 1
  store ptr null, ptr %13, align 8
  br label %14

14:                                               ; preds = %8, %2
  %15 = call ptr @pg_malloc(i64 noundef 16)
  store ptr %15, ptr %5, align 8
  %16 = load ptr, ptr %3, align 8
  %17 = load ptr, ptr %5, align 8
  %18 = getelementptr inbounds nuw %struct.PgBenchExprLink, ptr %17, i32 0, i32 0
  store ptr %16, ptr %18, align 8
  %19 = load ptr, ptr %5, align 8
  %20 = getelementptr inbounds nuw %struct.PgBenchExprLink, ptr %19, i32 0, i32 1
  store ptr null, ptr %20, align 8
  %21 = load ptr, ptr %4, align 8
  %22 = getelementptr inbounds nuw %struct.PgBenchExprList, ptr %21, i32 0, i32 0
  %23 = load ptr, ptr %22, align 8
  %24 = icmp eq ptr %23, null
  br i1 %24, label %25, label %29

25:                                               ; preds = %14
  %26 = load ptr, ptr %5, align 8
  %27 = load ptr, ptr %4, align 8
  %28 = getelementptr inbounds nuw %struct.PgBenchExprList, ptr %27, i32 0, i32 0
  store ptr %26, ptr %28, align 8
  br label %35

29:                                               ; preds = %14
  %30 = load ptr, ptr %5, align 8
  %31 = load ptr, ptr %4, align 8
  %32 = getelementptr inbounds nuw %struct.PgBenchExprList, ptr %31, i32 0, i32 1
  %33 = load ptr, ptr %32, align 8
  %34 = getelementptr inbounds nuw %struct.PgBenchExprLink, ptr %33, i32 0, i32 1
  store ptr %30, ptr %34, align 8
  br label %35

35:                                               ; preds = %29, %25
  %36 = load ptr, ptr %5, align 8
  %37 = load ptr, ptr %4, align 8
  %38 = getelementptr inbounds nuw %struct.PgBenchExprList, ptr %37, i32 0, i32 1
  store ptr %36, ptr %38, align 8
  %39 = load ptr, ptr %4, align 8
  call void @llvm.lifetime.end.p0(i64 8, ptr %5) #7
  ret ptr %39
}

; Function Attrs: nounwind uwtable
define internal ptr @make_variable(ptr noundef %0) #0 {
  %2 = alloca ptr, align 8
  %3 = alloca ptr, align 8
  store ptr %0, ptr %2, align 8
  call void @llvm.lifetime.start.p0(i64 8, ptr %3) #7
  %4 = call ptr @pg_malloc(i64 noundef 24)
  store ptr %4, ptr %3, align 8
  %5 = load ptr, ptr %3, align 8
  %6 = getelementptr inbounds nuw %struct.PgBenchExpr, ptr %5, i32 0, i32 0
  store i32 1, ptr %6, align 8
  %7 = load ptr, ptr %2, align 8
  %8 = load ptr, ptr %3, align 8
  %9 = getelementptr inbounds nuw %struct.PgBenchExpr, ptr %8, i32 0, i32 1
  %10 = getelementptr inbounds nuw %struct.anon, ptr %9, i32 0, i32 0
  store ptr %7, ptr %10, align 8
  %11 = load ptr, ptr %3, align 8
  call void @llvm.lifetime.end.p0(i64 8, ptr %3) #7
  ret ptr %11
}

; Function Attrs: nounwind uwtable
define internal i32 @elist_length(ptr noundef %0) #0 {
  %2 = alloca ptr, align 8
  %3 = alloca ptr, align 8
  %4 = alloca i32, align 4
  store ptr %0, ptr %2, align 8
  call void @llvm.lifetime.start.p0(i64 8, ptr %3) #7
  %5 = load ptr, ptr %2, align 8
  %6 = icmp ne ptr %5, null
  br i1 %6, label %7, label %11

7:                                                ; preds = %1
  %8 = load ptr, ptr %2, align 8
  %9 = getelementptr inbounds nuw %struct.PgBenchExprList, ptr %8, i32 0, i32 0
  %10 = load ptr, ptr %9, align 8
  br label %12

11:                                               ; preds = %1
  br label %12

12:                                               ; preds = %11, %7
  %13 = phi ptr [ %10, %7 ], [ null, %11 ]
  store ptr %13, ptr %3, align 8
  call void @llvm.lifetime.start.p0(i64 4, ptr %4) #7
  store i32 0, ptr %4, align 4
  br label %14

14:                                               ; preds = %20, %12
  %15 = load ptr, ptr %3, align 8
  %16 = icmp ne ptr %15, null
  br i1 %16, label %17, label %24

17:                                               ; preds = %14
  %18 = load i32, ptr %4, align 4
  %19 = add i32 %18, 1
  store i32 %19, ptr %4, align 4
  br label %20

20:                                               ; preds = %17
  %21 = load ptr, ptr %3, align 8
  %22 = getelementptr inbounds nuw %struct.PgBenchExprLink, ptr %21, i32 0, i32 1
  %23 = load ptr, ptr %22, align 8
  store ptr %23, ptr %3, align 8
  br label %14, !llvm.loop !9

24:                                               ; preds = %14
  %25 = load i32, ptr %4, align 4
  call void @llvm.lifetime.end.p0(i64 4, ptr %4) #7
  call void @llvm.lifetime.end.p0(i64 8, ptr %3) #7
  ret i32 %25
}

; Function Attrs: nounwind uwtable
define internal ptr @make_func(ptr noundef %0, i32 noundef %1, ptr noundef %2) #0 {
  %4 = alloca ptr, align 8
  %5 = alloca i32, align 4
  %6 = alloca ptr, align 8
  %7 = alloca i32, align 4
  %8 = alloca ptr, align 8
  %9 = alloca ptr, align 8
  %10 = alloca ptr, align 8
  store ptr %0, ptr %4, align 8
  store i32 %1, ptr %5, align 4
  store ptr %2, ptr %6, align 8
  call void @llvm.lifetime.start.p0(i64 4, ptr %7) #7
  %11 = load ptr, ptr %6, align 8
  %12 = call i32 @elist_length(ptr noundef %11)
  store i32 %12, ptr %7, align 4
  call void @llvm.lifetime.start.p0(i64 8, ptr %8) #7
  %13 = call ptr @pg_malloc(i64 noundef 24)
  store ptr %13, ptr %8, align 8
  %14 = load i32, ptr %5, align 4
  %15 = sext i32 %14 to i64
  %16 = getelementptr inbounds [40 x %struct.anon.2], ptr @PGBENCH_FUNCTIONS, i64 0, i64 %15
  %17 = getelementptr inbounds nuw %struct.anon.2, ptr %16, i32 0, i32 1
  %18 = load i32, ptr %17, align 8
  switch i32 %18, label %84 [
    i32 -1, label %19
    i32 -2, label %30
    i32 -3, label %40
    i32 -4, label %62
  ]

19:                                               ; preds = %3
  %20 = load i32, ptr %7, align 4
  %21 = icmp eq i32 %20, 0
  br i1 %21, label %22, label %29

22:                                               ; preds = %19
  %23 = load ptr, ptr %4, align 8
  %24 = load i32, ptr %5, align 4
  %25 = sext i32 %24 to i64
  %26 = getelementptr inbounds [40 x %struct.anon.2], ptr @PGBENCH_FUNCTIONS, i64 0, i64 %25
  %27 = getelementptr inbounds nuw %struct.anon.2, ptr %26, i32 0, i32 0
  %28 = load ptr, ptr %27, align 16
  call void @expr_yyerror_more(ptr noundef %23, ptr noundef @.str.47, ptr noundef %28) #9
  unreachable

29:                                               ; preds = %19
  br label %100

30:                                               ; preds = %3
  %31 = load i32, ptr %7, align 4
  %32 = icmp slt i32 %31, 3
  br i1 %32, label %37, label %33

33:                                               ; preds = %30
  %34 = load i32, ptr %7, align 4
  %35 = srem i32 %34, 2
  %36 = icmp ne i32 %35, 1
  br i1 %36, label %37, label %39

37:                                               ; preds = %33, %30
  %38 = load ptr, ptr %4, align 8
  call void @expr_yyerror_more(ptr noundef %38, ptr noundef @.str.48, ptr noundef @.str.49) #9
  unreachable

39:                                               ; preds = %33
  br label %100

40:                                               ; preds = %3
  %41 = load i32, ptr %7, align 4
  %42 = icmp slt i32 %41, 1
  br i1 %42, label %46, label %43

43:                                               ; preds = %40
  %44 = load i32, ptr %7, align 4
  %45 = icmp sgt i32 %44, 2
  br i1 %45, label %46, label %53

46:                                               ; preds = %43, %40
  %47 = load ptr, ptr %4, align 8
  %48 = load i32, ptr %5, align 4
  %49 = sext i32 %48 to i64
  %50 = getelementptr inbounds [40 x %struct.anon.2], ptr @PGBENCH_FUNCTIONS, i64 0, i64 %49
  %51 = getelementptr inbounds nuw %struct.anon.2, ptr %50, i32 0, i32 0
  %52 = load ptr, ptr %51, align 16
  call void @expr_yyerror_more(ptr noundef %47, ptr noundef @.str.50, ptr noundef %52) #9
  unreachable

53:                                               ; preds = %43
  %54 = load i32, ptr %7, align 4
  %55 = icmp eq i32 %54, 1
  br i1 %55, label %56, label %61

56:                                               ; preds = %53
  call void @llvm.lifetime.start.p0(i64 8, ptr %9) #7
  %57 = call ptr @make_variable(ptr noundef @.str.51)
  store ptr %57, ptr %9, align 8
  %58 = load ptr, ptr %9, align 8
  %59 = load ptr, ptr %6, align 8
  %60 = call ptr @make_elist(ptr noundef %58, ptr noundef %59)
  store ptr %60, ptr %6, align 8
  call void @llvm.lifetime.end.p0(i64 8, ptr %9) #7
  br label %61

61:                                               ; preds = %56, %53
  br label %100

62:                                               ; preds = %3
  %63 = load i32, ptr %7, align 4
  %64 = icmp slt i32 %63, 2
  br i1 %64, label %68, label %65

65:                                               ; preds = %62
  %66 = load i32, ptr %7, align 4
  %67 = icmp sgt i32 %66, 3
  br i1 %67, label %68, label %75

68:                                               ; preds = %65, %62
  %69 = load ptr, ptr %4, align 8
  %70 = load i32, ptr %5, align 4
  %71 = sext i32 %70 to i64
  %72 = getelementptr inbounds [40 x %struct.anon.2], ptr @PGBENCH_FUNCTIONS, i64 0, i64 %71
  %73 = getelementptr inbounds nuw %struct.anon.2, ptr %72, i32 0, i32 0
  %74 = load ptr, ptr %73, align 16
  call void @expr_yyerror_more(ptr noundef %69, ptr noundef @.str.50, ptr noundef %74) #9
  unreachable

75:                                               ; preds = %65
  %76 = load i32, ptr %7, align 4
  %77 = icmp eq i32 %76, 2
  br i1 %77, label %78, label %83

78:                                               ; preds = %75
  call void @llvm.lifetime.start.p0(i64 8, ptr %10) #7
  %79 = call ptr @make_variable(ptr noundef @.str.51)
  store ptr %79, ptr %10, align 8
  %80 = load ptr, ptr %10, align 8
  %81 = load ptr, ptr %6, align 8
  %82 = call ptr @make_elist(ptr noundef %80, ptr noundef %81)
  store ptr %82, ptr %6, align 8
  call void @llvm.lifetime.end.p0(i64 8, ptr %10) #7
  br label %83

83:                                               ; preds = %78, %75
  br label %100

84:                                               ; preds = %3
  %85 = load i32, ptr %5, align 4
  %86 = sext i32 %85 to i64
  %87 = getelementptr inbounds [40 x %struct.anon.2], ptr @PGBENCH_FUNCTIONS, i64 0, i64 %86
  %88 = getelementptr inbounds nuw %struct.anon.2, ptr %87, i32 0, i32 1
  %89 = load i32, ptr %88, align 8
  %90 = load i32, ptr %7, align 4
  %91 = icmp ne i32 %89, %90
  br i1 %91, label %92, label %99

92:                                               ; preds = %84
  %93 = load ptr, ptr %4, align 8
  %94 = load i32, ptr %5, align 4
  %95 = sext i32 %94 to i64
  %96 = getelementptr inbounds [40 x %struct.anon.2], ptr @PGBENCH_FUNCTIONS, i64 0, i64 %95
  %97 = getelementptr inbounds nuw %struct.anon.2, ptr %96, i32 0, i32 0
  %98 = load ptr, ptr %97, align 16
  call void @expr_yyerror_more(ptr noundef %93, ptr noundef @.str.50, ptr noundef %98) #9
  unreachable

99:                                               ; preds = %84
  br label %100

100:                                              ; preds = %99, %83, %61, %39, %29
  %101 = load ptr, ptr %8, align 8
  %102 = getelementptr inbounds nuw %struct.PgBenchExpr, ptr %101, i32 0, i32 0
  store i32 2, ptr %102, align 8
  %103 = load i32, ptr %5, align 4
  %104 = sext i32 %103 to i64
  %105 = getelementptr inbounds [40 x %struct.anon.2], ptr @PGBENCH_FUNCTIONS, i64 0, i64 %104
  %106 = getelementptr inbounds nuw %struct.anon.2, ptr %105, i32 0, i32 2
  %107 = load i32, ptr %106, align 4
  %108 = load ptr, ptr %8, align 8
  %109 = getelementptr inbounds nuw %struct.PgBenchExpr, ptr %108, i32 0, i32 1
  %110 = getelementptr inbounds nuw %struct.anon.1, ptr %109, i32 0, i32 0
  store i32 %107, ptr %110, align 8
  %111 = load ptr, ptr %6, align 8
  %112 = icmp ne ptr %111, null
  br i1 %112, label %113, label %117

113:                                              ; preds = %100
  %114 = load ptr, ptr %6, align 8
  %115 = getelementptr inbounds nuw %struct.PgBenchExprList, ptr %114, i32 0, i32 0
  %116 = load ptr, ptr %115, align 8
  br label %118

117:                                              ; preds = %100
  br label %118

118:                                              ; preds = %117, %113
  %119 = phi ptr [ %116, %113 ], [ null, %117 ]
  %120 = load ptr, ptr %8, align 8
  %121 = getelementptr inbounds nuw %struct.PgBenchExpr, ptr %120, i32 0, i32 1
  %122 = getelementptr inbounds nuw %struct.anon.1, ptr %121, i32 0, i32 1
  store ptr %119, ptr %122, align 8
  %123 = load ptr, ptr %6, align 8
  %124 = icmp ne ptr %123, null
  br i1 %124, label %125, label %127

125:                                              ; preds = %118
  %126 = load ptr, ptr %6, align 8
  call void @pg_free(ptr noundef %126)
  br label %127

127:                                              ; preds = %125, %118
  %128 = load ptr, ptr %8, align 8
  call void @llvm.lifetime.end.p0(i64 8, ptr %8) #7
  call void @llvm.lifetime.end.p0(i64 4, ptr %7) #7
  ret ptr %128
}