; Function Attrs: nounwind uwtable
define internal fastcc ptr @make_func(ptr noundef %0, i32 noundef %1, ptr noundef %2) unnamed_addr #0 {
  %.not.i = icmp eq ptr %2, null
  br i1 %.not.i, label %elist_length.exit, label %4

4:                                                ; preds = %3
  %5 = load ptr, ptr %2, align 8
  %.not78.i = icmp eq ptr %5, null
  br i1 %.not78.i, label %elist_length.exit, label %.lr.ph.i

.lr.ph.i:                                         ; preds = %4, %.lr.ph.i
  %.010.i = phi i32 [ %6, %.lr.ph.i ], [ 0, %4 ]
  %.059.i = phi ptr [ %8, %.lr.ph.i ], [ %5, %4 ]
  %6 = add i32 %.010.i, 1
  %7 = getelementptr inbounds nuw i8, ptr %.059.i, i64 8
  %8 = load ptr, ptr %7, align 8
  %.not7.i = icmp eq ptr %8, null
  br i1 %.not7.i, label %elist_length.exit, label %.lr.ph.i, !llvm.loop !8

elist_length.exit:                                ; preds = %.lr.ph.i, %3, %4
  %.0.lcssa.i = phi i32 [ 0, %4 ], [ 0, %3 ], [ %6, %.lr.ph.i ]
  %9 = tail call ptr @pg_malloc(i64 noundef 24) #9
  %10 = sext i32 %1 to i64
  %11 = getelementptr inbounds [40 x %struct.anon.2], ptr @PGBENCH_FUNCTIONS, i64 0, i64 %10
  %12 = getelementptr inbounds nuw i8, ptr %11, i64 8
  %13 = load i32, ptr %12, align 8
  switch i32 %13, label %64 [
    i32 -1, label %14
    i32 -2, label %18
    i32 -3, label %22
    i32 -4, label %43
  ]

14:                                               ; preds = %elist_length.exit
  %15 = icmp eq i32 %.0.lcssa.i, 0
  br i1 %15, label %16, label %71

16:                                               ; preds = %14
  %17 = load ptr, ptr %11, align 16
  tail call void @expr_yyerror_more(ptr noundef %0, ptr noundef nonnull @.str.47, ptr noundef %17) #11
  unreachable

18:                                               ; preds = %elist_length.exit
  %19 = icmp slt i32 %.0.lcssa.i, 3
  %20 = and i32 %.0.lcssa.i, 1
  %.not.not = icmp eq i32 %20, 0
  %or.cond39 = or i1 %19, %.not.not
  br i1 %or.cond39, label %21, label %71

21:                                               ; preds = %18
  tail call void @expr_yyerror_more(ptr noundef %0, ptr noundef nonnull @.str.48, ptr noundef nonnull @.str.49) #11
  unreachable

22:                                               ; preds = %elist_length.exit
  %23 = add i32 %.0.lcssa.i, -3
  %or.cond = icmp ult i32 %23, -2
  br i1 %or.cond, label %24, label %26

24:                                               ; preds = %22
  %25 = load ptr, ptr %11, align 16
  tail call void @expr_yyerror_more(ptr noundef %0, ptr noundef nonnull @.str.50, ptr noundef %25) #11
  unreachable

26:                                               ; preds = %22
  %27 = icmp eq i32 %.0.lcssa.i, 1
  br i1 %27, label %28, label %71

28:                                               ; preds = %26
  %29 = tail call noundef ptr @pg_malloc(i64 noundef 24) #9
  store i32 1, ptr %29, align 8
  %30 = getelementptr inbounds nuw i8, ptr %29, i64 8
  store ptr @.str.51, ptr %30, align 8
  br i1 %.not.i, label %31, label %33

31:                                               ; preds = %28
  %32 = tail call ptr @pg_malloc(i64 noundef 16) #9
  tail call void @llvm.memset.p0.i64(ptr noundef nonnull align 8 dereferenceable(16) %32, i8 0, i64 16, i1 false)
  br label %33

33:                                               ; preds = %31, %28
  %.0.i = phi ptr [ %32, %31 ], [ %2, %28 ]
  %34 = tail call ptr @pg_malloc(i64 noundef 16) #9
  store ptr %29, ptr %34, align 8
  %35 = getelementptr inbounds nuw i8, ptr %34, i64 8
  store ptr null, ptr %35, align 8
  %36 = load ptr, ptr %.0.i, align 8
  %37 = icmp eq ptr %36, null
  br i1 %37, label %38, label %39

38:                                               ; preds = %33
  store ptr %34, ptr %.0.i, align 8
  br label %.thread

39:                                               ; preds = %33
  %40 = getelementptr inbounds nuw i8, ptr %.0.i, i64 8
  %41 = load ptr, ptr %40, align 8
  %42 = getelementptr inbounds nuw i8, ptr %41, i64 8
  store ptr %34, ptr %42, align 8
  br label %.thread

43:                                               ; preds = %elist_length.exit
  %44 = add i32 %.0.lcssa.i, -4
  %or.cond3 = icmp ult i32 %44, -2
  br i1 %or.cond3, label %45, label %47

45:                                               ; preds = %43
  %46 = load ptr, ptr %11, align 16
  tail call void @expr_yyerror_more(ptr noundef %0, ptr noundef nonnull @.str.50, ptr noundef %46) #11
  unreachable

47:                                               ; preds = %43
  %48 = icmp eq i32 %.0.lcssa.i, 2
  br i1 %48, label %49, label %71

49:                                               ; preds = %47
  %50 = tail call noundef ptr @pg_malloc(i64 noundef 24) #9
  store i32 1, ptr %50, align 8
  %51 = getelementptr inbounds nuw i8, ptr %50, i64 8
  store ptr @.str.51, ptr %51, align 8
  br i1 %.not.i, label %52, label %54

52:                                               ; preds = %49
  %53 = tail call ptr @pg_malloc(i64 noundef 16) #9
  tail call void @llvm.memset.p0.i64(ptr noundef nonnull align 8 dereferenceable(16) %53, i8 0, i64 16, i1 false)
  br label %54

54:                                               ; preds = %52, %49
  %.0.i40 = phi ptr [ %53, %52 ], [ %2, %49 ]
  %55 = tail call ptr @pg_malloc(i64 noundef 16) #9
  store ptr %50, ptr %55, align 8
  %56 = getelementptr inbounds nuw i8, ptr %55, i64 8
  store ptr null, ptr %56, align 8
  %57 = load ptr, ptr %.0.i40, align 8
  %58 = icmp eq ptr %57, null
  br i1 %58, label %59, label %60

59:                                               ; preds = %54
  store ptr %55, ptr %.0.i40, align 8
  br label %.thread

60:                                               ; preds = %54
  %61 = getelementptr inbounds nuw i8, ptr %.0.i40, i64 8
  %62 = load ptr, ptr %61, align 8
  %63 = getelementptr inbounds nuw i8, ptr %62, i64 8
  store ptr %55, ptr %63, align 8
  br label %.thread

64:                                               ; preds = %elist_length.exit
  %.not = icmp eq i32 %13, %.0.lcssa.i
  br i1 %.not, label %71, label %65

65:                                               ; preds = %64
  %66 = load ptr, ptr %11, align 16
  tail call void @expr_yyerror_more(ptr noundef %0, ptr noundef nonnull @.str.50, ptr noundef %66) #11
  unreachable

.thread:                                          ; preds = %60, %59, %39, %38
  %.0.i40.sink = phi ptr [ %.0.i, %38 ], [ %.0.i, %39 ], [ %.0.i40, %59 ], [ %.0.i40, %60 ]
  %.sink = phi ptr [ %34, %38 ], [ %34, %39 ], [ %55, %59 ], [ %55, %60 ]
  %67 = getelementptr inbounds nuw i8, ptr %.0.i40.sink, i64 8
  store ptr %.sink, ptr %67, align 8
  store i32 2, ptr %9, align 8
  %68 = getelementptr inbounds nuw i8, ptr %11, i64 12
  %69 = load i32, ptr %68, align 4
  %70 = getelementptr inbounds nuw i8, ptr %9, i64 8
  store i32 %69, ptr %70, align 8
  br label %75

71:                                               ; preds = %18, %64, %47, %26, %14
  store i32 2, ptr %9, align 8
  %72 = getelementptr inbounds nuw i8, ptr %11, i64 12
  %73 = load i32, ptr %72, align 4
  %74 = getelementptr inbounds nuw i8, ptr %9, i64 8
  store i32 %73, ptr %74, align 8
  br i1 %.not.i, label %.critedge, label %75

75:                                               ; preds = %.thread, %71
  %.044 = phi ptr [ %.0.i40.sink, %.thread ], [ %2, %71 ]
  %76 = load ptr, ptr %.044, align 8
  %77 = getelementptr inbounds nuw i8, ptr %9, i64 16
  store ptr %76, ptr %77, align 8
  tail call void @pg_free(ptr noundef nonnull %.044) #9
  br label %79

.critedge:                                        ; preds = %71
  %78 = getelementptr inbounds nuw i8, ptr %9, i64 16
  store ptr null, ptr %78, align 8
  br label %79

79:                                               ; preds = %.critedge, %75
  ret ptr %9
}